target datalayout = "e-m:e-p270:32:32-p271:32:32-p272:64:64-i64:64-i128:128-f80:128-n8:16:32:64-S128"
target triple = "x86_64-pc-linux-gnu"

%struct.SDL_FRect = type { float, float, float, float }

@.str = private unnamed_addr constant [26 x i8] c"Parameter '%s' is invalid\00", align 1
@.str.6 = private unnamed_addr constant [2 x i8] c"A\00", align 1
@.str.7 = private unnamed_addr constant [2 x i8] c"B\00", align 1
@.str.8 = private unnamed_addr constant [29 x i8] c"Potential rect math overflow\00", align 1

; Function Attrs: alwaysinline nounwind uwtable
define internal zeroext i1 @SDL_RectEmptyFloat(ptr noundef %0) #3 {
  %2 = alloca ptr, align 8
  store ptr %0, ptr %2, align 8
  %3 = load ptr, ptr %2, align 8
  %4 = icmp ne ptr %3, null
  br i1 %4, label %5, label %15

5:                                                ; preds = %1
  %6 = load ptr, ptr %2, align 8
  %7 = getelementptr inbounds nuw %struct.SDL_FRect, ptr %6, i32 0, i32 2
  %8 = load float, ptr %7, align 4
  %9 = fcmp olt float %8, 0.000000e+00
  br i1 %9, label %15, label %10

10:                                               ; preds = %5
  %11 = load ptr, ptr %2, align 8
  %12 = getelementptr inbounds nuw %struct.SDL_FRect, ptr %11, i32 0, i32 3
  %13 = load float, ptr %12, align 4
  %14 = fcmp olt float %13, 0.000000e+00
  br label %15

15:                                               ; preds = %10, %5, %1
  %16 = phi i1 [ true, %5 ], [ true, %1 ], [ %14, %10 ]
  %17 = select i1 %16, i32 1, i32 0
  %18 = icmp ne i32 %17, 0
  ret i1 %18
}

; Function Attrs: nounwind uwtable
define internal zeroext i1 @SDL_RectCanOverflowFloat(ptr noundef %0) #0 {
  %2 = alloca i1, align 1
  %3 = alloca ptr, align 8
  store ptr %0, ptr %3, align 8
  %4 = load ptr, ptr %3, align 8
  %5 = getelementptr inbounds nuw %struct.SDL_FRect, ptr %4, i32 0, i32 0
  %6 = load float, ptr %5, align 4
  %7 = fcmp ole float %6, 0xC1D0000000000000
  br i1 %7, label %33, label %8

8:                                                ; preds = %1
  %9 = load ptr, ptr %3, align 8
  %10 = getelementptr inbounds nuw %struct.SDL_FRect, ptr %9, i32 0, i32 0
  %11 = load float, ptr %10, align 4
  %12 = fcmp oge float %11, 0x41D0000000000000
  br i1 %12, label %33, label %13

13:                                               ; preds = %8
  %14 = load ptr, ptr %3, align 8
  %15 = getelementptr inbounds nuw %struct.SDL_FRect, ptr %14, i32 0, i32 1
  %16 = load float, ptr %15, align 4
  %17 = fcmp ole float %16, 0xC1D0000000000000
  br i1 %17, label %33, label %18

18:                                               ; preds = %13
  %19 = load ptr, ptr %3, align 8
  %20 = getelementptr inbounds nuw %struct.SDL_FRect, ptr %19, i32 0, i32 1
  %21 = load float, ptr %20, align 4
  %22 = fcmp oge float %21, 0x41D0000000000000
  br i1 %22, label %33, label %23

23:                                               ; preds = %18
  %24 = load ptr, ptr %3, align 8
  %25 = getelementptr inbounds nuw %struct.SDL_FRect, ptr %24, i32 0, i32 2
  %26 = load float, ptr %25, align 4
  %27 = fcmp oge float %26, 0x41D0000000000000
  br i1 %27, label %33, label %28

28:                                               ; preds = %23
  %29 = load ptr, ptr %3, align 8
  %30 = getelementptr inbounds nuw %struct.SDL_FRect, ptr %29, i32 0, i32 3
  %31 = load float, ptr %30, align 4
  %32 = fcmp oge float %31, 0x41D0000000000000
  br i1 %32, label %33, label %34

33:                                               ; preds = %28, %23, %18, %13, %8, %1
  store i1 true, ptr %2, align 1
  br label %35

34:                                               ; preds = %28
  store i1 false, ptr %2, align 1
  br label %35

35:                                               ; preds = %34, %33
  %36 = load i1, ptr %2, align 1
  ret i1 %36
}

; Function Attrs: nounwind uwtable
define hidden zeroext i1 @SDL_HasRectIntersectionFloat_REAL(ptr noundef %0, ptr noundef %1) #0 {
  %3 = alloca i1, align 1
  %4 = alloca ptr, align 8
  %5 = alloca ptr, align 8
  %6 = alloca float, align 4
  %7 = alloca float, align 4
  %8 = alloca float, align 4
  %9 = alloca float, align 4
  %10 = alloca i32, align 4
  store ptr %0, ptr %4, align 8
  store ptr %1, ptr %5, align 8
  call void @llvm.lifetime.start.p0(i64 4, ptr %6) #6
  call void @llvm.lifetime.start.p0(i64 4, ptr %7) #6
  call void @llvm.lifetime.start.p0(i64 4, ptr %8) #6
  call void @llvm.lifetime.start.p0(i64 4, ptr %9) #6
  %11 = load ptr, ptr %4, align 8
  %12 = icmp ne ptr %11, null
  br i1 %12, label %15, label %13

13:                                               ; preds = %2
  %14 = call zeroext i1 (ptr, ...) @SDL_SetError_REAL(ptr noundef @.str, ptr noundef @.str.6)
  store i1 false, ptr %3, align 1
  store i32 1, ptr %10, align 4
  br label %107

15:                                               ; preds = %2
  %16 = load ptr, ptr %5, align 8
  %17 = icmp ne ptr %16, null
  br i1 %17, label %20, label %18

18:                                               ; preds = %15
  %19 = call zeroext i1 (ptr, ...) @SDL_SetError_REAL(ptr noundef @.str, ptr noundef @.str.7)
  store i1 false, ptr %3, align 1
  store i32 1, ptr %10, align 4
  br label %107

20:                                               ; preds = %15
  %21 = load ptr, ptr %4, align 8
  %22 = call zeroext i1 @SDL_RectCanOverflowFloat(ptr noundef %21)
  br i1 %22, label %26, label %23

23:                                               ; preds = %20
  %24 = load ptr, ptr %5, align 8
  %25 = call zeroext i1 @SDL_RectCanOverflowFloat(ptr noundef %24)
  br i1 %25, label %26, label %28

26:                                               ; preds = %23, %20
  %27 = call zeroext i1 (ptr, ...) @SDL_SetError_REAL(ptr noundef @.str.8)
  store i1 false, ptr %3, align 1
  store i32 1, ptr %10, align 4
  br label %107

28:                                               ; preds = %23
  %29 = load ptr, ptr %4, align 8
  %30 = call zeroext i1 @SDL_RectEmptyFloat(ptr noundef %29)
  br i1 %30, label %34, label %31

31:                                               ; preds = %28
  %32 = load ptr, ptr %5, align 8
  %33 = call zeroext i1 @SDL_RectEmptyFloat(ptr noundef %32)
  br i1 %33, label %34, label %35

34:                                               ; preds = %31, %28
  store i1 false, ptr %3, align 1
  store i32 1, ptr %10, align 4
  br label %107

35:                                               ; preds = %31
  br label %36

36:                                               ; preds = %35
  br label %37

37:                                               ; preds = %36
  br label %38

38:                                               ; preds = %37
  %39 = load ptr, ptr %4, align 8
  %40 = getelementptr inbounds nuw %struct.SDL_FRect, ptr %39, i32 0, i32 0
  %41 = load float, ptr %40, align 4
  store float %41, ptr %6, align 4
  %42 = load float, ptr %6, align 4
  %43 = load ptr, ptr %4, align 8
  %44 = getelementptr inbounds nuw %struct.SDL_FRect, ptr %43, i32 0, i32 2
  %45 = load float, ptr %44, align 4
  %46 = fadd float %42, %45
  store float %46, ptr %7, align 4
  %47 = load ptr, ptr %5, align 8
  %48 = getelementptr inbounds nuw %struct.SDL_FRect, ptr %47, i32 0, i32 0
  %49 = load float, ptr %48, align 4
  store float %49, ptr %8, align 4
  %50 = load float, ptr %8, align 4
  %51 = load ptr, ptr %5, align 8
  %52 = getelementptr inbounds nuw %struct.SDL_FRect, ptr %51, i32 0, i32 2
  %53 = load float, ptr %52, align 4
  %54 = fadd float %50, %53
  store float %54, ptr %9, align 4
  %55 = load float, ptr %8, align 4
  %56 = load float, ptr %6, align 4
  %57 = fcmp ogt float %55, %56
  br i1 %57, label %58, label %60

58:                                               ; preds = %38
  %59 = load float, ptr %8, align 4
  store float %59, ptr %6, align 4
  br label %60

60:                                               ; preds = %58, %38
  %61 = load float, ptr %9, align 4
  %62 = load float, ptr %7, align 4
  %63 = fcmp olt float %61, %62
  br i1 %63, label %64, label %66

64:                                               ; preds = %60
  %65 = load float, ptr %9, align 4
  store float %65, ptr %7, align 4
  br label %66

66:                                               ; preds = %64, %60
  %67 = load float, ptr %7, align 4
  %68 = fsub float %67, 0.000000e+00
  %69 = load float, ptr %6, align 4
  %70 = fcmp olt float %68, %69
  br i1 %70, label %71, label %72

71:                                               ; preds = %66
  store i1 false, ptr %3, align 1
  store i32 1, ptr %10, align 4
  br label %107

72:                                               ; preds = %66
  %73 = load ptr, ptr %4, align 8
  %74 = getelementptr inbounds nuw %struct.SDL_FRect, ptr %73, i32 0, i32 1
  %75 = load float, ptr %74, align 4
  store float %75, ptr %6, align 4
  %76 = load float, ptr %6, align 4
  %77 = load ptr, ptr %4, align 8
  %78 = getelementptr inbounds nuw %struct.SDL_FRect, ptr %77, i32 0, i32 3
  %79 = load float, ptr %78, align 4
  %80 = fadd float %76, %79
  store float %80, ptr %7, align 4
  %81 = load ptr, ptr %5, align 8
  %82 = getelementptr inbounds nuw %struct.SDL_FRect, ptr %81, i32 0, i32 1
  %83 = load float, ptr %82, align 4
  store float %83, ptr %8, align 4
  %84 = load float, ptr %8, align 4
  %85 = load ptr, ptr %5, align 8
  %86 = getelementptr inbounds nuw %struct.SDL_FRect, ptr %85, i32 0, i32 3
  %87 = load float, ptr %86, align 4
  %88 = fadd float %84, %87
  store float %88, ptr %9, align 4
  %89 = load float, ptr %8, align 4
  %90 = load float, ptr %6, align 4
  %91 = fcmp ogt float %89, %90
  br i1 %91, label %92, label %94

92:                                               ; preds = %72
  %93 = load float, ptr %8, align 4
  store float %93, ptr %6, align 4
  br label %94

94:                                               ; preds = %92, %72
  %95 = load float, ptr %9, align 4
  %96 = load float, ptr %7, align 4
  %97 = fcmp olt float %95, %96
  br i1 %97, label %98, label %100

98:                                               ; preds = %94
  %99 = load float, ptr %9, align 4
  store float %99, ptr %7, align 4
  br label %100

100:                                              ; preds = %98, %94
  %101 = load float, ptr %7, align 4
  %102 = fsub float %101, 0.000000e+00
  %103 = load float, ptr %6, align 4
  %104 = fcmp olt float %102, %103
  br i1 %104, label %105, label %106

105:                                              ; preds = %100
  store i1 false, ptr %3, align 1
  store i32 1, ptr %10, align 4
  br label %107

106:                                              ; preds = %100
  store i1 true, ptr %3, align 1
  store i32 1, ptr %10, align 4
  br label %107

107:                                              ; preds = %106, %105, %71, %34, %26, %18, %13
  call void @llvm.lifetime.end.p0(i64 4, ptr %9) #6
  call void @llvm.lifetime.end.p0(i64 4, ptr %8) #6
  call void @llvm.lifetime.end.p0(i64 4, ptr %7) #6
  call void @llvm.lifetime.end.p0(i64 4, ptr %6) #6
  %108 = load i1, ptr %3, align 1
  ret i1 %108
}