; Function Attrs: nounwind uwtable
define hidden noundef zeroext i1 @SDL_HasRectIntersectionFloat_REAL(ptr noundef readonly captures(address_is_null) %0, ptr noundef readonly captures(address_is_null) %1) local_unnamed_addr #0 {
  %.not = icmp eq ptr %0, null
  br i1 %.not, label %3, label %5

3:                                                ; preds = %2
  %4 = tail call zeroext i1 (ptr, ...) @SDL_SetError_REAL(ptr noundef nonnull @.str, ptr noundef nonnull @.str.6) #5
  br label %SDL_RectEmptyFloat.exit.thread

5:                                                ; preds = %2
  %.not48 = icmp eq ptr %1, null
  br i1 %.not48, label %6, label %8

6:                                                ; preds = %5
  %7 = tail call zeroext i1 (ptr, ...) @SDL_SetError_REAL(ptr noundef nonnull @.str, ptr noundef nonnull @.str.7) #5
  br label %SDL_RectEmptyFloat.exit.thread

8:                                                ; preds = %5
  %9 = load float, ptr %0, align 4
  %10 = tail call float @llvm.fabs.f32(float %9)
  %or.cond.i = fcmp ult float %10, 0x41D0000000000000
  br i1 %or.cond.i, label %11, label %SDL_RectCanOverflowFloat.exit.thread

11:                                               ; preds = %8
  %12 = getelementptr inbounds nuw i8, ptr %0, i64 4
  %13 = load float, ptr %12, align 4
  %14 = tail call float @llvm.fabs.f32(float %13)
  %or.cond9.i = fcmp ult float %14, 0x41D0000000000000
  br i1 %or.cond9.i, label %15, label %SDL_RectCanOverflowFloat.exit.thread

15:                                               ; preds = %11
  %16 = getelementptr inbounds nuw i8, ptr %0, i64 8
  %17 = load float, ptr %16, align 4
  %18 = fcmp ult float %17, 0x41D0000000000000
  br i1 %18, label %19, label %SDL_RectCanOverflowFloat.exit.thread

19:                                               ; preds = %15
  %20 = getelementptr inbounds nuw i8, ptr %0, i64 12
  %21 = load float, ptr %20, align 4
  %22 = fcmp ult float %21, 0x41D0000000000000
  br i1 %22, label %SDL_RectCanOverflowFloat.exit, label %SDL_RectCanOverflowFloat.exit.thread

SDL_RectCanOverflowFloat.exit:                    ; preds = %19
  %23 = load float, ptr %1, align 4
  %24 = tail call float @llvm.fabs.f32(float %23)
  %or.cond.i50 = fcmp ult float %24, 0x41D0000000000000
  br i1 %or.cond.i50, label %25, label %SDL_RectCanOverflowFloat.exit.thread

25:                                               ; preds = %SDL_RectCanOverflowFloat.exit
  %26 = getelementptr inbounds nuw i8, ptr %1, i64 4
  %27 = load float, ptr %26, align 4
  %28 = tail call float @llvm.fabs.f32(float %27)
  %or.cond9.i52 = fcmp ult float %28, 0x41D0000000000000
  br i1 %or.cond9.i52, label %29, label %SDL_RectCanOverflowFloat.exit.thread

29:                                               ; preds = %25
  %30 = getelementptr inbounds nuw i8, ptr %1, i64 8
  %31 = load float, ptr %30, align 4
  %32 = fcmp ult float %31, 0x41D0000000000000
  br i1 %32, label %33, label %SDL_RectCanOverflowFloat.exit.thread

33:                                               ; preds = %29
  %34 = getelementptr inbounds nuw i8, ptr %1, i64 12
  %35 = load float, ptr %34, align 4
  %36 = fcmp ult float %35, 0x41D0000000000000
  br i1 %36, label %SDL_RectCanOverflowFloat.exit53, label %SDL_RectCanOverflowFloat.exit.thread

SDL_RectCanOverflowFloat.exit.thread:             ; preds = %SDL_RectCanOverflowFloat.exit, %25, %29, %33, %8, %11, %15, %19
  %37 = tail call zeroext i1 (ptr, ...) @SDL_SetError_REAL(ptr noundef nonnull @.str.8) #5
  br label %SDL_RectEmptyFloat.exit.thread

SDL_RectCanOverflowFloat.exit53:                  ; preds = %33
  %38 = fcmp olt float %17, 0.000000e+00
  %39 = fcmp olt float %21, 0.000000e+00
  %or.cond = or i1 %38, %39
  %40 = fcmp olt float %31, 0.000000e+00
  %or.cond56 = or i1 %or.cond, %40
  %41 = fcmp olt float %35, 0.000000e+00
  %or.cond57 = or i1 %or.cond56, %41
  br i1 %or.cond57, label %SDL_RectEmptyFloat.exit.thread, label %42

42:                                               ; preds = %SDL_RectCanOverflowFloat.exit53
  %43 = fadd float %9, %17
  %44 = fadd float %23, %31
  %45 = fcmp ogt float %23, %9
  %.035 = select i1 %45, float %23, float %9
  %46 = fcmp olt float %44, %43
  %.0 = select i1 %46, float %44, float %43
  %47 = fcmp olt float %.0, %.035
  br i1 %47, label %SDL_RectEmptyFloat.exit.thread, label %48

48:                                               ; preds = %42
  %49 = fadd float %13, %21
  %50 = fadd float %27, %35
  %51 = fcmp ogt float %27, %13
  %.136 = select i1 %51, float %27, float %13
  %52 = fcmp olt float %50, %49
  %.1 = select i1 %52, float %50, float %49
  %53 = fcmp olt float %.1, %.136
  br i1 %53, label %SDL_RectEmptyFloat.exit.thread, label %54

54:                                               ; preds = %48
  br label %SDL_RectEmptyFloat.exit.thread

SDL_RectEmptyFloat.exit.thread:                   ; preds = %SDL_RectCanOverflowFloat.exit53, %48, %42, %54, %SDL_RectCanOverflowFloat.exit.thread, %6, %3
  %.037 = phi i1 [ false, %SDL_RectCanOverflowFloat.exit.thread ], [ true, %54 ], [ false, %6 ], [ false, %3 ], [ false, %42 ], [ false, %48 ], [ false, %SDL_RectCanOverflowFloat.exit53 ]
  ret i1 %.037
}